target datalayout = "e-m:e-p270:32:32-p271:32:32-p272:64:64-i64:64-i128:128-f80:128-n8:16:32:64-S128"
target triple = "x86_64-pc-linux-gnu"

%struct.OSSL_TIME = type { i64 }
%struct.ssl_st = type { i32, ptr, ptr, ptr, %struct.CRYPTO_REF_COUNT, ptr, %struct.crypto_ex_data_st }
%struct.CRYPTO_REF_COUNT = type { i32 }
%struct.crypto_ex_data_st = type { ptr, ptr }
%struct.ssl_connection_st = type { %struct.ssl_st, ptr, i32, ptr, ptr, ptr, i32, ptr, i32, i32, i32, i32, %struct.OSSL_TIME, %struct.OSSL_TIME, %struct.ossl_statem_st, i32, ptr, ptr, i64, i64, i64, %struct.ossl_quic_tls_callbacks_st, ptr, ptr, %struct.anon, ptr, ptr, ptr, i32, ptr, %struct.ssl_dane_st, ptr, ptr, ptr, ptr, i32, [64 x i8], [64 x i8], [64 x i8], [64 x i8], [64 x i8], [64 x i8], [64 x i8], [64 x i8], [64 x i8], [64 x i8], [64 x i8], [64 x i8], ptr, [64 x i8], i64, i32, i64, [32 x i8], ptr, ptr, ptr, i64, ptr, [32 x i8], i64, i32, ptr, ptr, i32, i32, ptr, ptr, ptr, ptr, ptr, i64, ptr, ptr, i64, i32, i32, i32, i64, i32, i32, i64, i64, i64, %struct.anon.1, ptr, i32, ptr, ptr, ptr, i32, ptr, ptr, ptr, i32, i32, i32, i32, ptr, i64, i32, ptr, %struct.srp_ctx_st, ptr, %struct.record_layer_st, ptr, ptr, ptr, ptr, i64, i32, i32, i32, i64, i64, i64, ptr, ptr, ptr, ptr, ptr, i64, ptr, i64, ptr, i64 }
%struct.ossl_statem_st = type { i32, i32, i32, i32, i32, i32, i32, i32, i32, i32, i32, i32, i32, ptr, ptr, ptr, i8 }
%struct.ossl_quic_tls_callbacks_st = type { ptr, ptr, ptr, ptr, ptr, ptr }
%struct.anon = type { i64, [32 x i8], [32 x i8], ptr, ptr, i32, i32, i32, i32, [2 x i8], i32, i32, i32, i32, %struct.anon.0, [64 x i8], i64, [64 x i8], i64, i32, i32, ptr, i64, ptr, i64, i32, i8, i8, i16, ptr, i16 }
%struct.anon.0 = type { [128 x i8], i64, [128 x i8], i64, i64, i32, ptr, ptr, [4 x ptr], [4 x i16], i64, i32, ptr, i64, ptr, i64, ptr, ptr, ptr, i32, i64, ptr, i32, ptr, i64, ptr, i64, ptr, i64, ptr, ptr, ptr, ptr, i64, i64, ptr, ptr, i32, i32, i32, i32 }
%struct.ssl_dane_st = type { ptr, ptr, ptr, ptr, ptr, i32, i32, i32, i64 }
%struct.anon.1 = type { [29 x i8], ptr, ptr, ptr, i32, ptr, i16, i32, %struct.anon.2, i32, i32, i64, ptr, i64, ptr, i64, ptr, i64, ptr, i64, ptr, i64, ptr, ptr, ptr, ptr, ptr, ptr, ptr, i64, ptr, i64, i32, i32, i32, i32, ptr, i64, i32, i8, i32, [4 x i32], i32, i8, i8, i8, i8 }
%struct.anon.2 = type { ptr, ptr, ptr, i64 }
%struct.srp_ctx_st = type { ptr, ptr, ptr, ptr, ptr, ptr, ptr, ptr, ptr, ptr, ptr, ptr, ptr, ptr, i32, i64 }
%struct.record_layer_st = type { ptr, ptr, ptr, ptr, ptr, ptr, ptr, ptr, i64, i32, i64, [4 x i8], i64, i64, i8, ptr, i32, ptr, ptr, ptr, i64, i64, i64, i64, [32 x %struct.tls_record_st] }
%struct.tls_record_st = type { ptr, i32, i8, ptr, ptr, i64, i64, i16, [8 x i8] }
%struct.ssl_ctx_st = type { ptr, ptr, ptr, ptr, ptr, ptr, ptr, i64, ptr, ptr, i32, %struct.OSSL_TIME, ptr, ptr, ptr, %struct.anon.3, %struct.CRYPTO_REF_COUNT, ptr, ptr, ptr, ptr, ptr, ptr, ptr, ptr, ptr, %struct.crypto_ex_data_st, ptr, ptr, ptr, ptr, ptr, ptr, ptr, i64, i32, i32, i32, i64, ptr, ptr, i32, ptr, ptr, i32, i64, [32 x i8], ptr, ptr, ptr, i32, ptr, ptr, ptr, i64, i64, i64, i64, ptr, ptr, ptr, ptr, ptr, %struct.anon.4, ptr, ptr, ptr, ptr, %struct.srp_ctx_st, %struct.dane_ctx_st, ptr, ptr, ptr, ptr, i32, i32, ptr, ptr, i64, i64, ptr, ptr, ptr, i64, ptr, ptr, i32, ptr, ptr, ptr, [14 x i32], [24 x ptr], [14 x ptr], [14 x i64], i64, ptr, ptr, ptr, i64, i64, ptr, i64, i64, i32, i32, i32, i32, ptr, i64, ptr, i64, i64, ptr, ptr }
%struct.anon.3 = type { i32, i32, i32, i32, i32, i32, i32, i32, i32, i32, i32 }
%struct.anon.4 = type { ptr, ptr, [16 x i8], ptr, ptr, ptr, ptr, ptr, i32, i8, i64, ptr, i64, ptr, i64, ptr, i64, ptr, ptr, i64, ptr, ptr, ptr, i64, ptr, ptr, ptr, ptr, [32 x i8] }
%struct.dane_ctx_st = type { ptr, ptr, i8, i64 }
%struct.tls_group_info_st = type { ptr, ptr, ptr, i32, i16, i32, i32, i32, i32, i8 }
%struct.anon.5 = type { i32, i16 }

; Function Attrs: nounwind uwtable
define i32 @tls1_group_id2nid(i16 noundef zeroext %0, i32 noundef %1) #1 {
  %3 = alloca i32, align 4
  %4 = alloca i16, align 2
  %5 = alloca i32, align 4
  %6 = alloca i64, align 8
  %7 = alloca i32, align 4
  store i16 %0, ptr %4, align 2, !tbaa !100
  store i32 %1, ptr %5, align 4, !tbaa !128
  call void @llvm.lifetime.start.p0(i64 8, ptr %6) #8
  %8 = load i16, ptr %4, align 2, !tbaa !100
  %9 = zext i16 %8 to i32
  %10 = icmp eq i32 %9, 0
  br i1 %10, label %11, label %12

11:                                               ; preds = %2
  store i32 0, ptr %3, align 4
  store i32 1, ptr %7, align 4
  br label %42

12:                                               ; preds = %2
  store i64 0, ptr %6, align 8, !tbaa !3
  br label %13

13:                                               ; preds = %31, %12
  %14 = load i64, ptr %6, align 8, !tbaa !3
  %15 = icmp ult i64 %14, 45
  br i1 %15, label %16, label %34

16:                                               ; preds = %13
  %17 = load i64, ptr %6, align 8, !tbaa !3
  %18 = getelementptr inbounds nuw [45 x %struct.anon.5], ptr @nid_to_group, i64 0, i64 %17
  %19 = getelementptr inbounds nuw %struct.anon.5, ptr %18, i32 0, i32 1
  %20 = load i16, ptr %19, align 4, !tbaa !129
  %21 = zext i16 %20 to i32
  %22 = load i16, ptr %4, align 2, !tbaa !100
  %23 = zext i16 %22 to i32
  %24 = icmp eq i32 %21, %23
  br i1 %24, label %25, label %30

25:                                               ; preds = %16
  %26 = load i64, ptr %6, align 8, !tbaa !3
  %27 = getelementptr inbounds nuw [45 x %struct.anon.5], ptr @nid_to_group, i64 0, i64 %26
  %28 = getelementptr inbounds nuw %struct.anon.5, ptr %27, i32 0, i32 0
  %29 = load i32, ptr %28, align 8, !tbaa !131
  store i32 %29, ptr %3, align 4
  store i32 1, ptr %7, align 4
  br label %42

30:                                               ; preds = %16
  br label %31

31:                                               ; preds = %30
  %32 = load i64, ptr %6, align 8, !tbaa !3
  %33 = add i64 %32, 1
  store i64 %33, ptr %6, align 8, !tbaa !3
  br label %13, !llvm.loop !132

34:                                               ; preds = %13
  %35 = load i32, ptr %5, align 4, !tbaa !128
  %36 = icmp ne i32 %35, 0
  br i1 %36, label %38, label %37

37:                                               ; preds = %34
  store i32 0, ptr %3, align 4
  store i32 1, ptr %7, align 4
  br label %42

38:                                               ; preds = %34
  %39 = load i16, ptr %4, align 2, !tbaa !100
  %40 = zext i16 %39 to i32
  %41 = or i32 16777216, %40
  store i32 %41, ptr %3, align 4
  store i32 1, ptr %7, align 4
  br label %42

42:                                               ; preds = %38, %37, %25, %11
  call void @llvm.lifetime.end.p0(i64 8, ptr %6) #8
  %43 = load i32, ptr %3, align 4
  ret i32 %43
}

; Function Attrs: nounwind uwtable
define ptr @tls1_group_id_lookup(ptr noundef %0, i16 noundef zeroext %1) #1 {
  %3 = alloca ptr, align 8
  %4 = alloca ptr, align 8
  %5 = alloca i16, align 2
  %6 = alloca i64, align 8
  %7 = alloca i32, align 4
  store ptr %0, ptr %4, align 8, !tbaa !80
  store i16 %1, ptr %5, align 2, !tbaa !100
  call void @llvm.lifetime.start.p0(i64 8, ptr %6) #8
  store i64 0, ptr %6, align 8, !tbaa !3
  br label %8

8:                                                ; preds = %33, %2
  %9 = load i64, ptr %6, align 8, !tbaa !3
  %10 = load ptr, ptr %4, align 8, !tbaa !80
  %11 = getelementptr inbounds nuw %struct.ssl_ctx_st, ptr %10, i32 0, i32 98
  %12 = load i64, ptr %11, align 8, !tbaa !96
  %13 = icmp ult i64 %9, %12
  br i1 %13, label %14, label %36

14:                                               ; preds = %8
  %15 = load ptr, ptr %4, align 8, !tbaa !80
  %16 = getelementptr inbounds nuw %struct.ssl_ctx_st, ptr %15, i32 0, i32 97
  %17 = load ptr, ptr %16, align 8, !tbaa !97
  %18 = load i64, ptr %6, align 8, !tbaa !3
  %19 = getelementptr inbounds nuw %struct.tls_group_info_st, ptr %17, i64 %18
  %20 = getelementptr inbounds nuw %struct.tls_group_info_st, ptr %19, i32 0, i32 4
  %21 = load i16, ptr %20, align 4, !tbaa !98
  %22 = zext i16 %21 to i32
  %23 = load i16, ptr %5, align 2, !tbaa !100
  %24 = zext i16 %23 to i32
  %25 = icmp eq i32 %22, %24
  br i1 %25, label %26, label %32

26:                                               ; preds = %14
  %27 = load ptr, ptr %4, align 8, !tbaa !80
  %28 = getelementptr inbounds nuw %struct.ssl_ctx_st, ptr %27, i32 0, i32 97
  %29 = load ptr, ptr %28, align 8, !tbaa !97
  %30 = load i64, ptr %6, align 8, !tbaa !3
  %31 = getelementptr inbounds nuw %struct.tls_group_info_st, ptr %29, i64 %30
  store ptr %31, ptr %3, align 8
  store i32 1, ptr %7, align 4
  br label %37

32:                                               ; preds = %14
  br label %33

33:                                               ; preds = %32
  %34 = load i64, ptr %6, align 8, !tbaa !3
  %35 = add i64 %34, 1
  store i64 %35, ptr %6, align 8, !tbaa !3
  br label %8, !llvm.loop !125

36:                                               ; preds = %8
  store ptr null, ptr %3, align 8
  store i32 1, ptr %7, align 4
  br label %37

37:                                               ; preds = %36, %26
  call void @llvm.lifetime.end.p0(i64 8, ptr %6) #8
  %38 = load ptr, ptr %3, align 8
  ret ptr %38
}

; Function Attrs: nounwind uwtable
define i32 @tls_group_allowed(ptr noundef %0, i16 noundef zeroext %1, i32 noundef %2) #1 {
  %4 = alloca i32, align 4
  %5 = alloca ptr, align 8
  %6 = alloca i16, align 2
  %7 = alloca i32, align 4
  %8 = alloca ptr, align 8
  %9 = alloca [2 x i8], align 1
  %10 = alloca i32, align 4
  store ptr %0, ptr %5, align 8, !tbaa !25
  store i16 %1, ptr %6, align 2, !tbaa !100
  store i32 %2, ptr %7, align 4, !tbaa !128
  call void @llvm.lifetime.start.p0(i64 8, ptr %8) #8
  %11 = load ptr, ptr %5, align 8, !tbaa !25
  %12 = getelementptr inbounds nuw %struct.ssl_connection_st, ptr %11, i32 0, i32 0
  %13 = getelementptr inbounds nuw %struct.ssl_st, ptr %12, i32 0, i32 1
  %14 = load ptr, ptr %13, align 8, !tbaa !137
  %15 = load i16, ptr %6, align 2, !tbaa !100
  %16 = call ptr @tls1_group_id_lookup(ptr noundef %14, i16 noundef zeroext %15)
  store ptr %16, ptr %8, align 8, !tbaa !126
  call void @llvm.lifetime.start.p0(i64 2, ptr %9) #8
  %17 = load ptr, ptr %8, align 8, !tbaa !126
  %18 = icmp eq ptr %17, null
  br i1 %18, label %19, label %20

19:                                               ; preds = %3
  store i32 0, ptr %4, align 4
  store i32 1, ptr %10, align 4
  br label %42

20:                                               ; preds = %3
  %21 = load i16, ptr %6, align 2, !tbaa !100
  %22 = zext i16 %21 to i32
  %23 = ashr i32 %22, 8
  %24 = trunc i32 %23 to i8
  %25 = getelementptr inbounds [2 x i8], ptr %9, i64 0, i64 0
  store i8 %24, ptr %25, align 1, !tbaa !161
  %26 = load i16, ptr %6, align 2, !tbaa !100
  %27 = zext i16 %26 to i32
  %28 = and i32 %27, 255
  %29 = trunc i32 %28 to i8
  %30 = getelementptr inbounds [2 x i8], ptr %9, i64 0, i64 1
  store i8 %29, ptr %30, align 1, !tbaa !161
  %31 = load ptr, ptr %5, align 8, !tbaa !25
  %32 = load i32, ptr %7, align 4, !tbaa !128
  %33 = load ptr, ptr %8, align 8, !tbaa !126
  %34 = getelementptr inbounds nuw %struct.tls_group_info_st, ptr %33, i32 0, i32 3
  %35 = load i32, ptr %34, align 8, !tbaa !162
  %36 = load ptr, ptr %8, align 8, !tbaa !126
  %37 = getelementptr inbounds nuw %struct.tls_group_info_st, ptr %36, i32 0, i32 4
  %38 = load i16, ptr %37, align 4, !tbaa !98
  %39 = call i32 @tls1_group_id2nid(i16 noundef zeroext %38, i32 noundef 0)
  %40 = getelementptr inbounds [2 x i8], ptr %9, i64 0, i64 0
  %41 = call i32 @ssl_security(ptr noundef %31, i32 noundef %32, i32 noundef %35, i32 noundef %39, ptr noundef %40)
  store i32 %41, ptr %4, align 4
  store i32 1, ptr %10, align 4
  br label %42

42:                                               ; preds = %20, %19
  call void @llvm.lifetime.end.p0(i64 2, ptr %9) #8
  call void @llvm.lifetime.end.p0(i64 8, ptr %8) #8
  %43 = load i32, ptr %4, align 4
  ret i32 %43
}