; Function Attrs: nounwind uwtable
define i32 @tls_group_allowed(ptr noundef %0, i16 noundef zeroext %1, i32 noundef %2) local_unnamed_addr #2 {
  %4 = alloca [2 x i8], align 1
  %5 = getelementptr inbounds nuw i8, ptr %0, i64 8
  %6 = load ptr, ptr %5, align 8, !tbaa !126
  %7 = getelementptr inbounds nuw i8, ptr %6, i64 1664
  %8 = load i64, ptr %7, align 8, !tbaa !91
  %.not.i = icmp eq i64 %8, 0
  br i1 %.not.i, label %tls1_group_id_lookup.exit.thread, label %.lr.ph.i

.lr.ph.i:                                         ; preds = %3
  %9 = getelementptr inbounds nuw i8, ptr %6, i64 1656
  %10 = load ptr, ptr %9, align 8, !tbaa !92
  br label %13

11:                                               ; preds = %13
  %12 = add nuw i64 %.09.i, 1
  %exitcond.not.i = icmp eq i64 %12, %8
  br i1 %exitcond.not.i, label %tls1_group_id_lookup.exit.thread, label %13, !llvm.loop !119

13:                                               ; preds = %11, %.lr.ph.i
  %.09.i = phi i64 [ 0, %.lr.ph.i ], [ %12, %11 ]
  %14 = getelementptr inbounds nuw %struct.tls_group_info_st, ptr %10, i64 %.09.i
  %15 = getelementptr inbounds nuw i8, ptr %14, i64 28
  %16 = load i16, ptr %15, align 4, !tbaa !96
  %17 = icmp eq i16 %16, %1
  br i1 %17, label %18, label %11

tls1_group_id_lookup.exit.thread:                 ; preds = %11, %3
  call void @llvm.lifetime.start.p0(i64 2, ptr nonnull %4) #14
  br label %35

18:                                               ; preds = %13
  call void @llvm.lifetime.start.p0(i64 2, ptr nonnull %4) #14
  %19 = lshr i16 %1, 8
  %20 = trunc nuw i16 %19 to i8
  store i8 %20, ptr %4, align 1, !tbaa !141
  %21 = trunc i16 %1 to i8
  %22 = getelementptr inbounds nuw i8, ptr %4, i64 1
  store i8 %21, ptr %22, align 1, !tbaa !141
  %23 = getelementptr inbounds nuw i8, ptr %14, i64 24
  %24 = load i32, ptr %23, align 8, !tbaa !142
  %25 = icmp eq i16 %1, 0
  br i1 %25, label %tls1_group_id2nid.exit, label %.preheader.i

26:                                               ; preds = %.preheader.i
  %27 = add nuw nsw i64 %.011.i, 1
  %exitcond.not.i10 = icmp eq i64 %27, 45
  br i1 %exitcond.not.i10, label %tls1_group_id2nid.exit, label %.preheader.i, !llvm.loop !121

.preheader.i:                                     ; preds = %18, %26
  %.011.i = phi i64 [ %27, %26 ], [ 0, %18 ]
  %28 = getelementptr inbounds nuw [45 x %struct.anon.5], ptr @nid_to_group, i64 0, i64 %.011.i
  %29 = getelementptr inbounds nuw i8, ptr %28, i64 4
  %30 = load i16, ptr %29, align 4, !tbaa !122
  %31 = icmp eq i16 %30, %1
  br i1 %31, label %32, label %26

32:                                               ; preds = %.preheader.i
  %33 = load i32, ptr %28, align 8, !tbaa !124
  br label %tls1_group_id2nid.exit

tls1_group_id2nid.exit:                           ; preds = %26, %18, %32
  %.09.i11 = phi i32 [ %33, %32 ], [ 0, %18 ], [ 0, %26 ]
  %34 = call i32 @ssl_security(ptr noundef %0, i32 noundef %2, i32 noundef %24, i32 noundef %.09.i11, ptr noundef nonnull %4) #14
  br label %35

35:                                               ; preds = %tls1_group_id_lookup.exit.thread, %tls1_group_id2nid.exit
  %.0 = phi i32 [ %34, %tls1_group_id2nid.exit ], [ 0, %tls1_group_id_lookup.exit.thread ]
  call void @llvm.lifetime.end.p0(i64 2, ptr nonnull %4) #14
  ret i32 %.0
}